; Function Attrs: uwtable
define void @_ZThn16_NK27FilterScreenedPoissonPlugin16pythonFilterNameEi(ptr dead_on_unwind noalias nocapture writable writeonly sret(%class.QString) align 8 %0, ptr nocapture noundef readnone %1, i32 noundef %2) unnamed_addr #30 align 2 {
  tail call void @llvm.experimental.noalias.scope.decl(metadata !71)
  %4 = icmp eq i32 %2, 0
  br i1 %4, label %5, label %_ZNK27FilterScreenedPoissonPlugin16pythonFilterNameEi.exit

5:                                                ; preds = %3
  %6 = tail call noundef ptr @_ZN7QString16fromAscii_helperEPKci(ptr noundef nonnull @.str.16, i32 noundef 48), !noalias !71
  br label %_ZNK27FilterScreenedPoissonPlugin16pythonFilterNameEi.exit

_ZNK27FilterScreenedPoissonPlugin16pythonFilterNameEi.exit: ; preds = %3, %5
  %storemerge.i = phi ptr [ %6, %5 ], [ @_ZN10QArrayData11shared_nullE, %3 ]
  store ptr %storemerge.i, ptr %0, align 8, !alias.scope !71
  ret void
}